target datalayout = "e-m:e-p270:32:32-p271:32:32-p272:64:64-i64:64-i128:128-f80:128-n8:16:32:64-S128"
target triple = "x86_64-unknown-linux-gnu"

; Function Attrs: mustprogress nounwind uwtable
define noundef i64 @_ZN8facebook5velox8encoding6Base6420calculateEncodedSizeEmb(i64 noundef %size, i1 noundef zeroext %withPadding) #0 align 2 {
entry:
  %retval = alloca i64, align 8
  %size.addr = alloca i64, align 8
  %withPadding.addr = alloca i8, align 1
  %encodedSize = alloca i64, align 8
  store i64 %size, ptr %size.addr, align 8
  %frombool = zext i1 %withPadding to i8
  store i8 %frombool, ptr %withPadding.addr, align 1
  %0 = load i64, ptr %size.addr, align 8
  %cmp = icmp eq i64 %0, 0
  br i1 %cmp, label %if.then, label %if.end

if.then:                                          ; preds = %entry
  store i64 0, ptr %retval, align 8
  br label %return

if.end:                                           ; preds = %entry
  %1 = load i64, ptr %size.addr, align 8
  %add = add i64 %1, 2
  %div = udiv i64 %add, 3
  %mul = mul i64 %div, 4
  store i64 %mul, ptr %encodedSize, align 8
  %2 = load i8, ptr %withPadding.addr, align 1
  %tobool = trunc i8 %2 to i1
  br i1 %tobool, label %if.end4, label %if.then1

if.then1:                                         ; preds = %if.end
  %3 = load i64, ptr %size.addr, align 8
  %rem = urem i64 %3, 3
  %sub = sub i64 3, %rem
  %rem2 = urem i64 %sub, 3
  %4 = load i64, ptr %encodedSize, align 8
  %sub3 = sub i64 %4, %rem2
  store i64 %sub3, ptr %encodedSize, align 8
  br label %if.end4

if.end4:                                          ; preds = %if.then1, %if.end
  %5 = load i64, ptr %encodedSize, align 8
  store i64 %5, ptr %retval, align 8
  br label %return

return:                                           ; preds = %if.end4, %if.then
  %6 = load i64, ptr %retval, align 8
  ret i64 %6
}