; Function Attrs: mustprogress nofree norecurse nosync nounwind willreturn memory(none) uwtable
define noundef i64 @_ZN8facebook5velox8encoding6Base6420calculateEncodedSizeEmb(i64 noundef %size, i1 noundef zeroext %withPadding) local_unnamed_addr #0 align 2 {
entry:
  %cmp = icmp eq i64 %size, 0
  br i1 %cmp, label %return, label %if.end

if.end:                                           ; preds = %entry
  %add = add i64 %size, 2
  %div = udiv i64 %add, 3
  %mul = shl i64 %div, 2
  br i1 %withPadding, label %return, label %if.then1

if.then1:                                         ; preds = %if.end
  %rem = urem i64 %size, 3
  %sub = xor i64 %rem, 3
  %rem2.cmp.not = icmp eq i64 %rem, 0
  %rem2 = select i1 %rem2.cmp.not, i64 0, i64 %sub
  %sub3 = sub i64 %mul, %rem2
  br label %return

return:                                           ; preds = %if.end, %if.then1, %entry
  %retval.0 = phi i64 [ 0, %entry ], [ %mul, %if.end ], [ %sub3, %if.then1 ]
  ret i64 %retval.0
}